target datalayout = "e-m:e-p270:32:32-p271:32:32-p272:64:64-i64:64-i128:128-f80:128-n8:16:32:64-S128"
target triple = "x86_64-pc-linux-gnu"

%"class.gmx::ImdSession::Impl" = type { i8, ptr, i32, i32, ptr, ptr, i32, ptr, ptr, ptr, ptr, ptr, i32, i32, i32, i32, ptr, ptr, i32, i8, i8, i8, i8, i8, ptr, i32, ptr, ptr, i32, ptr, ptr, ptr, ptr, ptr, %struct.t_block, i32, ptr, ptr, ptr, ptr, ptr, ptr }
%struct.t_block = type { i32, ptr, i32 }

@.str.24 = private unnamed_addr constant [10 x i8] c"%14.6e%6d\00", align 1
@.str.25 = private unnamed_addr constant [4 x i8] c"%9d\00", align 1
@.str.26 = private unnamed_addr constant [19 x i8] c"%12.4e%12.4e%12.4e\00", align 1
@.str.27 = private unnamed_addr constant [2 x i8] c"\0A\00", align 1

; Function Attrs: inlinehint mustprogress nounwind uwtable
define internal void @_ZL9copy_rvecPKfPf(ptr noundef %0, ptr noundef %1) #6 {
  %3 = alloca ptr, align 8
  %4 = alloca ptr, align 8
  store ptr %0, ptr %3, align 8, !tbaa !324
  store ptr %1, ptr %4, align 8, !tbaa !324
  %5 = load ptr, ptr %3, align 8, !tbaa !324
  %6 = getelementptr inbounds float, ptr %5, i64 0
  %7 = load float, ptr %6, align 4, !tbaa !329
  %8 = load ptr, ptr %4, align 8, !tbaa !324
  %9 = getelementptr inbounds float, ptr %8, i64 0
  store float %7, ptr %9, align 4, !tbaa !329
  %10 = load ptr, ptr %3, align 8, !tbaa !324
  %11 = getelementptr inbounds float, ptr %10, i64 1
  %12 = load float, ptr %11, align 4, !tbaa !329
  %13 = load ptr, ptr %4, align 8, !tbaa !324
  %14 = getelementptr inbounds float, ptr %13, i64 1
  store float %12, ptr %14, align 4, !tbaa !329
  %15 = load ptr, ptr %3, align 8, !tbaa !324
  %16 = getelementptr inbounds float, ptr %15, i64 2
  %17 = load float, ptr %16, align 4, !tbaa !329
  %18 = load ptr, ptr %4, align 8, !tbaa !324
  %19 = getelementptr inbounds float, ptr %18, i64 2
  store float %17, ptr %19, align 4, !tbaa !329
  ret void
}

; Function Attrs: mustprogress uwtable
define void @_ZN3gmx10ImdSession4Impl13keepOldValuesEv(ptr noundef nonnull align 8 dereferenceable(296) %0) #0 align 2 {
  %2 = alloca ptr, align 8
  %3 = alloca i32, align 4
  store ptr %0, ptr %2, align 8, !tbaa !266
  %4 = load ptr, ptr %2, align 8
  %5 = getelementptr inbounds nuw %"class.gmx::ImdSession::Impl", ptr %4, i32 0, i32 28
  %6 = load i32, ptr %5, align 8, !tbaa !328
  %7 = getelementptr inbounds nuw %"class.gmx::ImdSession::Impl", ptr %4, i32 0, i32 35
  store i32 %6, ptr %7, align 8, !tbaa !333
  call void @llvm.lifetime.start.p0(i64 4, ptr %3) #17
  store i32 0, ptr %3, align 4, !tbaa !70
  br label %8

8:                                                ; preds = %38, %1
  %9 = load i32, ptr %3, align 4, !tbaa !70
  %10 = getelementptr inbounds nuw %"class.gmx::ImdSession::Impl", ptr %4, i32 0, i32 28
  %11 = load i32, ptr %10, align 8, !tbaa !328
  %12 = icmp slt i32 %9, %11
  br i1 %12, label %14, label %13

13:                                               ; preds = %8
  call void @llvm.lifetime.end.p0(i64 4, ptr %3) #17
  br label %41

14:                                               ; preds = %8
  %15 = getelementptr inbounds nuw %"class.gmx::ImdSession::Impl", ptr %4, i32 0, i32 29
  %16 = load ptr, ptr %15, align 8, !tbaa !330
  %17 = load i32, ptr %3, align 4, !tbaa !70
  %18 = sext i32 %17 to i64
  %19 = getelementptr inbounds i32, ptr %16, i64 %18
  %20 = load i32, ptr %19, align 4, !tbaa !70
  %21 = getelementptr inbounds nuw %"class.gmx::ImdSession::Impl", ptr %4, i32 0, i32 36
  %22 = load ptr, ptr %21, align 8, !tbaa !334
  %23 = load i32, ptr %3, align 4, !tbaa !70
  %24 = sext i32 %23 to i64
  %25 = getelementptr inbounds i32, ptr %22, i64 %24
  store i32 %20, ptr %25, align 4, !tbaa !70
  %26 = getelementptr inbounds nuw %"class.gmx::ImdSession::Impl", ptr %4, i32 0, i32 30
  %27 = load ptr, ptr %26, align 8, !tbaa !331
  %28 = load i32, ptr %3, align 4, !tbaa !70
  %29 = sext i32 %28 to i64
  %30 = getelementptr inbounds [3 x float], ptr %27, i64 %29
  %31 = getelementptr inbounds [3 x float], ptr %30, i64 0, i64 0
  %32 = getelementptr inbounds nuw %"class.gmx::ImdSession::Impl", ptr %4, i32 0, i32 37
  %33 = load ptr, ptr %32, align 8, !tbaa !336
  %34 = load i32, ptr %3, align 4, !tbaa !70
  %35 = sext i32 %34 to i64
  %36 = getelementptr inbounds [3 x float], ptr %33, i64 %35
  %37 = getelementptr inbounds [3 x float], ptr %36, i64 0, i64 0
  call void @_ZL9copy_rvecPKfPf(ptr noundef %31, ptr noundef %37)
  br label %38

38:                                               ; preds = %14
  %39 = load i32, ptr %3, align 4, !tbaa !70
  %40 = add nsw i32 %39, 1
  store i32 %40, ptr %3, align 4, !tbaa !70
  br label %8, !llvm.loop !339

41:                                               ; preds = %13
  ret void
}

; Function Attrs: inlinehint mustprogress nounwind uwtable
define internal noundef zeroext i1 @_ZN3gmxL12rvecs_differEPKfS1_(ptr noundef %0, ptr noundef %1) #6 {
  %3 = alloca i1, align 1
  %4 = alloca ptr, align 8
  %5 = alloca ptr, align 8
  %6 = alloca i32, align 4
  %7 = alloca i32, align 4
  store ptr %0, ptr %4, align 8, !tbaa !324
  store ptr %1, ptr %5, align 8, !tbaa !324
  call void @llvm.lifetime.start.p0(i64 4, ptr %6) #17
  store i32 0, ptr %6, align 4, !tbaa !70
  br label %8

8:                                                ; preds = %26, %2
  %9 = load i32, ptr %6, align 4, !tbaa !70
  %10 = icmp slt i32 %9, 3
  br i1 %10, label %12, label %11

11:                                               ; preds = %8
  store i32 2, ptr %7, align 4
  br label %29

12:                                               ; preds = %8
  %13 = load ptr, ptr %4, align 8, !tbaa !324
  %14 = load i32, ptr %6, align 4, !tbaa !70
  %15 = sext i32 %14 to i64
  %16 = getelementptr inbounds float, ptr %13, i64 %15
  %17 = load float, ptr %16, align 4, !tbaa !329
  %18 = load ptr, ptr %5, align 8, !tbaa !324
  %19 = load i32, ptr %6, align 4, !tbaa !70
  %20 = sext i32 %19 to i64
  %21 = getelementptr inbounds float, ptr %18, i64 %20
  %22 = load float, ptr %21, align 4, !tbaa !329
  %23 = fcmp une float %17, %22
  br i1 %23, label %24, label %25

24:                                               ; preds = %12
  store i1 true, ptr %3, align 1
  store i32 1, ptr %7, align 4
  br label %29

25:                                               ; preds = %12
  br label %26

26:                                               ; preds = %25
  %27 = load i32, ptr %6, align 4, !tbaa !70
  %28 = add nsw i32 %27, 1
  store i32 %28, ptr %6, align 4, !tbaa !70
  br label %8, !llvm.loop !338

29:                                               ; preds = %24, %11
  call void @llvm.lifetime.end.p0(i64 4, ptr %6) #17
  %30 = load i32, ptr %7, align 4
  switch i32 %30, label %34 [
    i32 2, label %31
    i32 1, label %32
  ]

31:                                               ; preds = %29
  store i1 false, ptr %3, align 1
  br label %32

32:                                               ; preds = %31, %29
  %33 = load i1, ptr %3, align 1
  ret i1 %33

34:                                               ; preds = %29
  unreachable
}

; Function Attrs: mustprogress uwtable
define noundef zeroext i1 @_ZNK3gmx10ImdSession4Impl14bForcesChangedEv(ptr noundef nonnull align 8 dereferenceable(296) %0) #0 align 2 {
  %2 = alloca i1, align 1
  %3 = alloca ptr, align 8
  %4 = alloca i32, align 4
  %5 = alloca i32, align 4
  %6 = alloca i32, align 4
  store ptr %0, ptr %3, align 8, !tbaa !266
  %7 = load ptr, ptr %3, align 8
  %8 = getelementptr inbounds nuw %"class.gmx::ImdSession::Impl", ptr %7, i32 0, i32 28
  %9 = load i32, ptr %8, align 8, !tbaa !328
  %10 = getelementptr inbounds nuw %"class.gmx::ImdSession::Impl", ptr %7, i32 0, i32 35
  %11 = load i32, ptr %10, align 8, !tbaa !333
  %12 = icmp ne i32 %9, %11
  br i1 %12, label %13, label %14

13:                                               ; preds = %1
  store i1 true, ptr %2, align 1
  br label %71

14:                                               ; preds = %1
  call void @llvm.lifetime.start.p0(i64 4, ptr %4) #17
  store i32 0, ptr %4, align 4, !tbaa !70
  br label %15

15:                                               ; preds = %37, %14
  %16 = load i32, ptr %4, align 4, !tbaa !70
  %17 = getelementptr inbounds nuw %"class.gmx::ImdSession::Impl", ptr %7, i32 0, i32 28
  %18 = load i32, ptr %17, align 8, !tbaa !328
  %19 = icmp slt i32 %16, %18
  br i1 %19, label %21, label %20

20:                                               ; preds = %15
  store i32 2, ptr %5, align 4
  br label %40

21:                                               ; preds = %15
  %22 = getelementptr inbounds nuw %"class.gmx::ImdSession::Impl", ptr %7, i32 0, i32 29
  %23 = load ptr, ptr %22, align 8, !tbaa !330
  %24 = load i32, ptr %4, align 4, !tbaa !70
  %25 = sext i32 %24 to i64
  %26 = getelementptr inbounds i32, ptr %23, i64 %25
  %27 = load i32, ptr %26, align 4, !tbaa !70
  %28 = getelementptr inbounds nuw %"class.gmx::ImdSession::Impl", ptr %7, i32 0, i32 36
  %29 = load ptr, ptr %28, align 8, !tbaa !334
  %30 = load i32, ptr %4, align 4, !tbaa !70
  %31 = sext i32 %30 to i64
  %32 = getelementptr inbounds i32, ptr %29, i64 %31
  %33 = load i32, ptr %32, align 4, !tbaa !70
  %34 = icmp ne i32 %27, %33
  br i1 %34, label %35, label %36

35:                                               ; preds = %21
  store i1 true, ptr %2, align 1
  store i32 1, ptr %5, align 4
  br label %40

36:                                               ; preds = %21
  br label %37

37:                                               ; preds = %36
  %38 = load i32, ptr %4, align 4, !tbaa !70
  %39 = add nsw i32 %38, 1
  store i32 %39, ptr %4, align 4, !tbaa !70
  br label %15, !llvm.loop !335

40:                                               ; preds = %35, %20
  call void @llvm.lifetime.end.p0(i64 4, ptr %4) #17
  %41 = load i32, ptr %5, align 4
  switch i32 %41, label %73 [
    i32 2, label %42
    i32 1, label %71
  ]

42:                                               ; preds = %40
  call void @llvm.lifetime.start.p0(i64 4, ptr %6) #17
  store i32 0, ptr %6, align 4, !tbaa !70
  br label %43

43:                                               ; preds = %65, %42
  %44 = load i32, ptr %6, align 4, !tbaa !70
  %45 = getelementptr inbounds nuw %"class.gmx::ImdSession::Impl", ptr %7, i32 0, i32 28
  %46 = load i32, ptr %45, align 8, !tbaa !328
  %47 = icmp slt i32 %44, %46
  br i1 %47, label %49, label %48

48:                                               ; preds = %43
  store i32 5, ptr %5, align 4
  br label %68

49:                                               ; preds = %43
  %50 = getelementptr inbounds nuw %"class.gmx::ImdSession::Impl", ptr %7, i32 0, i32 30
  %51 = load ptr, ptr %50, align 8, !tbaa !331
  %52 = load i32, ptr %6, align 4, !tbaa !70
  %53 = sext i32 %52 to i64
  %54 = getelementptr inbounds [3 x float], ptr %51, i64 %53
  %55 = getelementptr inbounds [3 x float], ptr %54, i64 0, i64 0
  %56 = getelementptr inbounds nuw %"class.gmx::ImdSession::Impl", ptr %7, i32 0, i32 37
  %57 = load ptr, ptr %56, align 8, !tbaa !336
  %58 = load i32, ptr %6, align 4, !tbaa !70
  %59 = sext i32 %58 to i64
  %60 = getelementptr inbounds [3 x float], ptr %57, i64 %59
  %61 = getelementptr inbounds [3 x float], ptr %60, i64 0, i64 0
  %62 = call noundef zeroext i1 @_ZN3gmxL12rvecs_differEPKfS1_(ptr noundef %55, ptr noundef %61)
  br i1 %62, label %63, label %64

63:                                               ; preds = %49
  store i1 true, ptr %2, align 1
  store i32 1, ptr %5, align 4
  br label %68

64:                                               ; preds = %49
  br label %65

65:                                               ; preds = %64
  %66 = load i32, ptr %6, align 4, !tbaa !70
  %67 = add nsw i32 %66, 1
  store i32 %67, ptr %6, align 4, !tbaa !70
  br label %43, !llvm.loop !337

68:                                               ; preds = %63, %48
  call void @llvm.lifetime.end.p0(i64 4, ptr %6) #17
  %69 = load i32, ptr %5, align 4
  switch i32 %69, label %73 [
    i32 5, label %70
    i32 1, label %71
  ]

70:                                               ; preds = %68
  store i1 false, ptr %2, align 1
  br label %71

71:                                               ; preds = %70, %68, %40, %13
  %72 = load i1, ptr %2, align 1
  ret i1 %72

73:                                               ; preds = %68, %40
  unreachable
}

; Function Attrs: mustprogress uwtable
define void @_ZN3gmx10ImdSession4Impl12outputForcesEd(ptr noundef nonnull align 8 dereferenceable(296) %0, double noundef %1) #0 align 2 {
  %3 = alloca ptr, align 8
  %4 = alloca double, align 8
  %5 = alloca i32, align 4
  store ptr %0, ptr %3, align 8, !tbaa !266
  store double %1, ptr %4, align 8, !tbaa !340
  %6 = load ptr, ptr %3, align 8
  %7 = call noundef zeroext i1 @_ZNK3gmx10ImdSession4Impl14bForcesChangedEv(ptr noundef nonnull align 8 dereferenceable(296) %6)
  br i1 %7, label %9, label %8

8:                                                ; preds = %2
  br label %87

9:                                                ; preds = %2
  %10 = getelementptr inbounds nuw %"class.gmx::ImdSession::Impl", ptr %6, i32 0, i32 1
  %11 = load ptr, ptr %10, align 8, !tbaa !303
  %12 = load double, ptr %4, align 8, !tbaa !340
  %13 = getelementptr inbounds nuw %"class.gmx::ImdSession::Impl", ptr %6, i32 0, i32 28
  %14 = load i32, ptr %13, align 8, !tbaa !328
  %15 = call i32 (ptr, ptr, ...) @fprintf(ptr noundef %11, ptr noundef @.str.24, double noundef %12, i32 noundef %14) #17
  call void @llvm.lifetime.start.p0(i64 4, ptr %5) #17
  store i32 0, ptr %5, align 4, !tbaa !70
  br label %16

16:                                               ; preds = %80, %9
  %17 = load i32, ptr %5, align 4, !tbaa !70
  %18 = getelementptr inbounds nuw %"class.gmx::ImdSession::Impl", ptr %6, i32 0, i32 28
  %19 = load i32, ptr %18, align 8, !tbaa !328
  %20 = icmp slt i32 %17, %19
  br i1 %20, label %22, label %21

21:                                               ; preds = %16
  call void @llvm.lifetime.end.p0(i64 4, ptr %5) #17
  br label %83

22:                                               ; preds = %16
  %23 = getelementptr inbounds nuw %"class.gmx::ImdSession::Impl", ptr %6, i32 0, i32 30
  %24 = load ptr, ptr %23, align 8, !tbaa !331
  %25 = load i32, ptr %5, align 4, !tbaa !70
  %26 = sext i32 %25 to i64
  %27 = getelementptr inbounds [3 x float], ptr %24, i64 %26
  %28 = getelementptr inbounds [3 x float], ptr %27, i64 0, i64 0
  %29 = getelementptr inbounds nuw %"class.gmx::ImdSession::Impl", ptr %6, i32 0, i32 37
  %30 = load ptr, ptr %29, align 8, !tbaa !336
  %31 = load i32, ptr %5, align 4, !tbaa !70
  %32 = sext i32 %31 to i64
  %33 = getelementptr inbounds [3 x float], ptr %30, i64 %32
  %34 = getelementptr inbounds [3 x float], ptr %33, i64 0, i64 0
  %35 = call noundef zeroext i1 @_ZN3gmxL12rvecs_differEPKfS1_(ptr noundef %28, ptr noundef %34)
  br i1 %35, label %36, label %79

36:                                               ; preds = %22
  %37 = getelementptr inbounds nuw %"class.gmx::ImdSession::Impl", ptr %6, i32 0, i32 1
  %38 = load ptr, ptr %37, align 8, !tbaa !303
  %39 = getelementptr inbounds nuw %"class.gmx::ImdSession::Impl", ptr %6, i32 0, i32 4
  %40 = load ptr, ptr %39, align 8, !tbaa !258
  %41 = getelementptr inbounds nuw %"class.gmx::ImdSession::Impl", ptr %6, i32 0, i32 29
  %42 = load ptr, ptr %41, align 8, !tbaa !330
  %43 = load i32, ptr %5, align 4, !tbaa !70
  %44 = sext i32 %43 to i64
  %45 = getelementptr inbounds i32, ptr %42, i64 %44
  %46 = load i32, ptr %45, align 4, !tbaa !70
  %47 = sext i32 %46 to i64
  %48 = getelementptr inbounds i32, ptr %40, i64 %47
  %49 = load i32, ptr %48, align 4, !tbaa !70
  %50 = add nsw i32 %49, 1
  %51 = call i32 (ptr, ptr, ...) @fprintf(ptr noundef %38, ptr noundef @.str.25, i32 noundef %50) #17
  %52 = getelementptr inbounds nuw %"class.gmx::ImdSession::Impl", ptr %6, i32 0, i32 1
  %53 = load ptr, ptr %52, align 8, !tbaa !303
  %54 = getelementptr inbounds nuw %"class.gmx::ImdSession::Impl", ptr %6, i32 0, i32 30
  %55 = load ptr, ptr %54, align 8, !tbaa !331
  %56 = load i32, ptr %5, align 4, !tbaa !70
  %57 = sext i32 %56 to i64
  %58 = getelementptr inbounds [3 x float], ptr %55, i64 %57
  %59 = getelementptr inbounds [3 x float], ptr %58, i64 0, i64 0
  %60 = load float, ptr %59, align 4, !tbaa !329
  %61 = fpext float %60 to double
  %62 = getelementptr inbounds nuw %"class.gmx::ImdSession::Impl", ptr %6, i32 0, i32 30
  %63 = load ptr, ptr %62, align 8, !tbaa !331
  %64 = load i32, ptr %5, align 4, !tbaa !70
  %65 = sext i32 %64 to i64
  %66 = getelementptr inbounds [3 x float], ptr %63, i64 %65
  %67 = getelementptr inbounds [3 x float], ptr %66, i64 0, i64 1
  %68 = load float, ptr %67, align 4, !tbaa !329
  %69 = fpext float %68 to double
  %70 = getelementptr inbounds nuw %"class.gmx::ImdSession::Impl", ptr %6, i32 0, i32 30
  %71 = load ptr, ptr %70, align 8, !tbaa !331
  %72 = load i32, ptr %5, align 4, !tbaa !70
  %73 = sext i32 %72 to i64
  %74 = getelementptr inbounds [3 x float], ptr %71, i64 %73
  %75 = getelementptr inbounds [3 x float], ptr %74, i64 0, i64 2
  %76 = load float, ptr %75, align 4, !tbaa !329
  %77 = fpext float %76 to double
  %78 = call i32 (ptr, ptr, ...) @fprintf(ptr noundef %53, ptr noundef @.str.26, double noundef %61, double noundef %69, double noundef %77) #17
  br label %79

79:                                               ; preds = %36, %22
  br label %80

80:                                               ; preds = %79
  %81 = load i32, ptr %5, align 4, !tbaa !70
  %82 = add nsw i32 %81, 1
  store i32 %82, ptr %5, align 4, !tbaa !70
  br label %16, !llvm.loop !341

83:                                               ; preds = %21
  %84 = getelementptr inbounds nuw %"class.gmx::ImdSession::Impl", ptr %6, i32 0, i32 1
  %85 = load ptr, ptr %84, align 8, !tbaa !303
  %86 = call i32 (ptr, ptr, ...) @fprintf(ptr noundef %85, ptr noundef @.str.27) #17
  call void @_ZN3gmx10ImdSession4Impl13keepOldValuesEv(ptr noundef nonnull align 8 dereferenceable(296) %6)
  br label %87

87:                                               ; preds = %83, %8
  ret void
}