; Function Attrs: mustprogress nofree nounwind uwtable
define void @_ZN3gmx10ImdSession4Impl12outputForcesEd(ptr noundef nonnull align 8 captures(none) dereferenceable(296) %0, double noundef %1) local_unnamed_addr #18 align 2 {
  %3 = getelementptr inbounds nuw i8, ptr %0, i64 168
  %4 = load i32, ptr %3, align 8, !tbaa !171
  %5 = getelementptr inbounds nuw i8, ptr %0, i64 240
  %6 = load i32, ptr %5, align 8, !tbaa !177
  %.not.i = icmp eq i32 %4, %6
  br i1 %.not.i, label %.preheader22.i, label %.loopexit

.preheader22.i:                                   ; preds = %2
  %7 = icmp sgt i32 %4, 0
  br i1 %7, label %.lr.ph.i, label %_ZNK3gmx10ImdSession4Impl14bForcesChangedEv.exit

.lr.ph.i:                                         ; preds = %.preheader22.i
  %8 = getelementptr inbounds nuw i8, ptr %0, i64 176
  %9 = load ptr, ptr %8, align 8, !tbaa !172
  %10 = getelementptr inbounds nuw i8, ptr %0, i64 248
  %11 = load ptr, ptr %10, align 8, !tbaa !178
  %wide.trip.count.i = zext nneg i32 %4 to i64
  br label %17

12:                                               ; preds = %17
  %indvars.iv.next.i = add nuw nsw i64 %indvars.iv.i, 1
  %exitcond.not.i = icmp eq i64 %indvars.iv.next.i, %wide.trip.count.i
  br i1 %exitcond.not.i, label %.preheader.i, label %17, !llvm.loop !179

.preheader.i:                                     ; preds = %12
  %13 = getelementptr inbounds nuw i8, ptr %0, i64 184
  %14 = load ptr, ptr %13, align 8, !tbaa !174
  %15 = getelementptr inbounds nuw i8, ptr %0, i64 256
  %16 = load ptr, ptr %15, align 8, !tbaa !180
  br label %23

17:                                               ; preds = %12, %.lr.ph.i
  %indvars.iv.i = phi i64 [ 0, %.lr.ph.i ], [ %indvars.iv.next.i, %12 ]
  %18 = getelementptr inbounds nuw i32, ptr %9, i64 %indvars.iv.i
  %19 = load i32, ptr %18, align 4, !tbaa !161
  %20 = getelementptr inbounds nuw i32, ptr %11, i64 %indvars.iv.i
  %21 = load i32, ptr %20, align 4, !tbaa !161
  %.not15.i = icmp eq i32 %19, %21
  br i1 %.not15.i, label %12, label %.loopexit

22:                                               ; preds = %_ZN3gmxL12rvecs_differEPKfS1_.exit.i
  %indvars.iv.next32.i = add nuw nsw i64 %indvars.iv31.i, 1
  %exitcond35.not.i = icmp eq i64 %indvars.iv.next32.i, %wide.trip.count.i
  br i1 %exitcond35.not.i, label %_ZNK3gmx10ImdSession4Impl14bForcesChangedEv.exit, label %23, !llvm.loop !182

23:                                               ; preds = %22, %.preheader.i
  %indvars.iv31.i = phi i64 [ 0, %.preheader.i ], [ %indvars.iv.next32.i, %22 ]
  %24 = getelementptr inbounds nuw [3 x float], ptr %14, i64 %indvars.iv31.i
  %25 = getelementptr inbounds nuw [3 x float], ptr %16, i64 %indvars.iv31.i
  br label %26

26:                                               ; preds = %26, %23
  %indvars.iv.i.i = phi i64 [ 0, %23 ], [ %indvars.iv.next.i.i, %26 ]
  %27 = getelementptr inbounds nuw float, ptr %24, i64 %indvars.iv.i.i
  %28 = load float, ptr %27, align 4, !tbaa !175
  %29 = getelementptr inbounds nuw float, ptr %25, i64 %indvars.iv.i.i
  %30 = load float, ptr %29, align 4, !tbaa !175
  %31 = fcmp une float %28, %30
  %indvars.iv.next.i.i = add nuw nsw i64 %indvars.iv.i.i, 1
  %exitcond.not.i.i = icmp eq i64 %indvars.iv.next.i.i, 3
  %or.cond.i.i = select i1 %31, i1 true, i1 %exitcond.not.i.i
  br i1 %or.cond.i.i, label %_ZN3gmxL12rvecs_differEPKfS1_.exit.i, label %26, !llvm.loop !181

_ZN3gmxL12rvecs_differEPKfS1_.exit.i:             ; preds = %26
  br i1 %31, label %.loopexit, label %22

.loopexit:                                        ; preds = %17, %_ZN3gmxL12rvecs_differEPKfS1_.exit.i, %2
  %32 = getelementptr inbounds nuw i8, ptr %0, i64 8
  %33 = load ptr, ptr %32, align 8, !tbaa !153
  %34 = tail call i32 (ptr, ptr, ...) @fprintf(ptr noundef %33, ptr noundef nonnull @.str.24, double noundef %1, i32 noundef %4) #26
  %35 = load i32, ptr %3, align 8, !tbaa !171
  %36 = icmp sgt i32 %35, 0
  br i1 %36, label %.lr.ph, label %._crit_edge

.lr.ph:                                           ; preds = %.loopexit
  %37 = getelementptr inbounds nuw i8, ptr %0, i64 184
  %38 = getelementptr inbounds nuw i8, ptr %0, i64 256
  %39 = getelementptr inbounds nuw i8, ptr %0, i64 24
  %40 = getelementptr inbounds nuw i8, ptr %0, i64 176
  br label %68

._crit_edge:                                      ; preds = %103, %.loopexit
  %41 = load ptr, ptr %32, align 8, !tbaa !153
  %fputc = tail call i32 @fputc(i32 10, ptr %41)
  %42 = load i32, ptr %3, align 8, !tbaa !171
  store i32 %42, ptr %5, align 8, !tbaa !177
  %43 = icmp sgt i32 %42, 0
  br i1 %43, label %.lr.ph.i9, label %_ZNK3gmx10ImdSession4Impl14bForcesChangedEv.exit

.lr.ph.i9:                                        ; preds = %._crit_edge
  %44 = getelementptr inbounds nuw i8, ptr %0, i64 176
  %45 = load ptr, ptr %44, align 8, !tbaa !172
  %46 = getelementptr inbounds nuw i8, ptr %0, i64 248
  %47 = load ptr, ptr %46, align 8, !tbaa !178
  %48 = getelementptr inbounds nuw i8, ptr %0, i64 184
  %49 = load ptr, ptr %48, align 8, !tbaa !174
  %50 = getelementptr inbounds nuw i8, ptr %0, i64 256
  %51 = load ptr, ptr %50, align 8, !tbaa !180
  br label %52

52:                                               ; preds = %52, %.lr.ph.i9
  %indvars.iv.i10 = phi i64 [ 0, %.lr.ph.i9 ], [ %indvars.iv.next.i11, %52 ]
  %53 = getelementptr inbounds nuw i32, ptr %45, i64 %indvars.iv.i10
  %54 = load i32, ptr %53, align 4, !tbaa !161
  %55 = getelementptr inbounds nuw i32, ptr %47, i64 %indvars.iv.i10
  store i32 %54, ptr %55, align 4, !tbaa !161
  %56 = getelementptr inbounds nuw [3 x float], ptr %49, i64 %indvars.iv.i10
  %57 = getelementptr inbounds nuw [3 x float], ptr %51, i64 %indvars.iv.i10
  %58 = load float, ptr %56, align 4, !tbaa !175
  store float %58, ptr %57, align 4, !tbaa !175
  %59 = getelementptr inbounds nuw i8, ptr %56, i64 4
  %60 = load float, ptr %59, align 4, !tbaa !175
  %61 = getelementptr inbounds nuw i8, ptr %57, i64 4
  store float %60, ptr %61, align 4, !tbaa !175
  %62 = getelementptr inbounds nuw i8, ptr %56, i64 8
  %63 = load float, ptr %62, align 4, !tbaa !175
  %64 = getelementptr inbounds nuw i8, ptr %57, i64 8
  store float %63, ptr %64, align 4, !tbaa !175
  %indvars.iv.next.i11 = add nuw nsw i64 %indvars.iv.i10, 1
  %65 = load i32, ptr %3, align 8, !tbaa !171
  %66 = sext i32 %65 to i64
  %67 = icmp slt i64 %indvars.iv.next.i11, %66
  br i1 %67, label %52, label %_ZNK3gmx10ImdSession4Impl14bForcesChangedEv.exit, !llvm.loop !183

68:                                               ; preds = %.lr.ph, %103
  %69 = phi i32 [ %35, %.lr.ph ], [ %104, %103 ]
  %indvars.iv = phi i64 [ 0, %.lr.ph ], [ %indvars.iv.next, %103 ]
  %70 = load ptr, ptr %37, align 8, !tbaa !174
  %71 = getelementptr inbounds nuw [3 x float], ptr %70, i64 %indvars.iv
  %72 = load ptr, ptr %38, align 8, !tbaa !180
  %73 = getelementptr inbounds nuw [3 x float], ptr %72, i64 %indvars.iv
  br label %74

74:                                               ; preds = %74, %68
  %indvars.iv.i12 = phi i64 [ 0, %68 ], [ %indvars.iv.next.i13, %74 ]
  %75 = getelementptr inbounds nuw float, ptr %71, i64 %indvars.iv.i12
  %76 = load float, ptr %75, align 4, !tbaa !175
  %77 = getelementptr inbounds nuw float, ptr %73, i64 %indvars.iv.i12
  %78 = load float, ptr %77, align 4, !tbaa !175
  %79 = fcmp une float %76, %78
  %indvars.iv.next.i13 = add nuw nsw i64 %indvars.iv.i12, 1
  %exitcond.not.i14 = icmp eq i64 %indvars.iv.next.i13, 3
  %or.cond.i = select i1 %79, i1 true, i1 %exitcond.not.i14
  br i1 %or.cond.i, label %_ZN3gmxL12rvecs_differEPKfS1_.exit, label %74, !llvm.loop !181

_ZN3gmxL12rvecs_differEPKfS1_.exit:               ; preds = %74
  br i1 %79, label %80, label %103

80:                                               ; preds = %_ZN3gmxL12rvecs_differEPKfS1_.exit
  %81 = load ptr, ptr %32, align 8, !tbaa !153
  %82 = load ptr, ptr %39, align 8, !tbaa !143
  %83 = load ptr, ptr %40, align 8, !tbaa !172
  %84 = getelementptr inbounds nuw i32, ptr %83, i64 %indvars.iv
  %85 = load i32, ptr %84, align 4, !tbaa !161
  %86 = sext i32 %85 to i64
  %87 = getelementptr inbounds i32, ptr %82, i64 %86
  %88 = load i32, ptr %87, align 4, !tbaa !161
  %89 = add nsw i32 %88, 1
  %90 = tail call i32 (ptr, ptr, ...) @fprintf(ptr noundef %81, ptr noundef nonnull @.str.25, i32 noundef %89) #26
  %91 = load ptr, ptr %32, align 8, !tbaa !153
  %92 = load ptr, ptr %37, align 8, !tbaa !174
  %93 = getelementptr inbounds nuw [3 x float], ptr %92, i64 %indvars.iv
  %94 = load float, ptr %93, align 4, !tbaa !175
  %95 = fpext float %94 to double
  %96 = getelementptr inbounds nuw i8, ptr %93, i64 4
  %97 = load float, ptr %96, align 4, !tbaa !175
  %98 = fpext float %97 to double
  %99 = getelementptr inbounds nuw i8, ptr %93, i64 8
  %100 = load float, ptr %99, align 4, !tbaa !175
  %101 = fpext float %100 to double
  %102 = tail call i32 (ptr, ptr, ...) @fprintf(ptr noundef %91, ptr noundef nonnull @.str.26, double noundef %95, double noundef %98, double noundef %101) #26
  %.pre = load i32, ptr %3, align 8, !tbaa !171
  br label %103

103:                                              ; preds = %_ZN3gmxL12rvecs_differEPKfS1_.exit, %80
  %104 = phi i32 [ %69, %_ZN3gmxL12rvecs_differEPKfS1_.exit ], [ %.pre, %80 ]
  %indvars.iv.next = add nuw nsw i64 %indvars.iv, 1
  %105 = sext i32 %104 to i64
  %106 = icmp slt i64 %indvars.iv.next, %105
  br i1 %106, label %68, label %._crit_edge, !llvm.loop !184

_ZNK3gmx10ImdSession4Impl14bForcesChangedEv.exit: ; preds = %22, %52, %._crit_edge, %.preheader22.i
  ret void
}